target datalayout = "e-m:e-p270:32:32-p271:32:32-p272:64:64-i64:64-i128:128-f80:128-n8:16:32:64-S128"
target triple = "x86_64-pc-linux-gnu"

%struct.FunctionCallInfoBaseData = type { ptr, ptr, ptr, i32, i8, i16, [0 x %struct.NullableDatum] }
%struct.NullableDatum = type { i64, i8 }

@.str.1 = private unnamed_addr constant [18 x i8] c"array_userfuncs.c\00", align 1
@.str.8 = private unnamed_addr constant [36 x i8] c"could not determine input data type\00", align 1
@__func__.array_agg_array_transfn = private unnamed_addr constant [24 x i8] c"array_agg_array_transfn\00", align 1
@.str.12 = private unnamed_addr constant [56 x i8] c"array_agg_array_transfn called in non-aggregate context\00", align 1

; Function Attrs: inlinehint nounwind uwtable
define internal i64 @PointerGetDatum(ptr noundef %0) #2 {
  %2 = alloca ptr, align 8
  store ptr %0, ptr %2, align 8
  %3 = load ptr, ptr %2, align 8
  %4 = ptrtoint ptr %3 to i64
  ret i64 %4
}

; Function Attrs: inlinehint nounwind uwtable
define internal ptr @DatumGetPointer(i64 noundef %0) #2 {
  %2 = alloca i64, align 8
  store i64 %0, ptr %2, align 8
  %3 = load i64, ptr %2, align 8
  %4 = inttoptr i64 %3 to ptr
  ret ptr %4
}

; Function Attrs: nounwind uwtable
define dso_local i64 @array_agg_array_transfn(ptr noundef %0) #0 {
  %2 = alloca ptr, align 8
  %3 = alloca i32, align 4
  %4 = alloca ptr, align 8
  %5 = alloca ptr, align 8
  store ptr %0, ptr %2, align 8
  call void @llvm.lifetime.start.p0(i64 4, ptr %3) #7
  %6 = load ptr, ptr %2, align 8
  %7 = getelementptr inbounds nuw %struct.FunctionCallInfoBaseData, ptr %6, i32 0, i32 0
  %8 = load ptr, ptr %7, align 8
  %9 = call i32 @get_fn_expr_argtype(ptr noundef %8, i32 noundef 1)
  store i32 %9, ptr %3, align 4
  call void @llvm.lifetime.start.p0(i64 8, ptr %4) #7
  call void @llvm.lifetime.start.p0(i64 8, ptr %5) #7
  %10 = load i32, ptr %3, align 4
  %11 = icmp eq i32 %10, 0
  br i1 %11, label %12, label %24

12:                                               ; preds = %1
  br label %13

13:                                               ; preds = %12
  br i1 true, label %14, label %16

14:                                               ; preds = %13
  %15 = call zeroext i1 @errstart_cold(i32 noundef 21, ptr noundef null) #8
  br i1 %15, label %18, label %21

16:                                               ; preds = %13
  %17 = call zeroext i1 @errstart(i32 noundef 21, ptr noundef null)
  br i1 %17, label %18, label %21

18:                                               ; preds = %16, %14
  %19 = call i32 @errcode(i32 noundef 50856066)
  %20 = call i32 (ptr, ...) @errmsg(ptr noundef @.str.8)
  call void @errfinish(ptr noundef @.str.1, i32 noundef 927, ptr noundef @__func__.array_agg_array_transfn)
  br label %21

21:                                               ; preds = %18, %16, %14
  unreachable

22:                                               ; No predecessors!
  br label %23

23:                                               ; preds = %22
  br label %24

24:                                               ; preds = %23, %1
  %25 = load ptr, ptr %2, align 8
  %26 = call i32 @AggCheckCallContext(ptr noundef %25, ptr noundef %4)
  %27 = icmp ne i32 %26, 0
  br i1 %27, label %39, label %28

28:                                               ; preds = %24
  br label %29

29:                                               ; preds = %28
  br i1 true, label %30, label %32

30:                                               ; preds = %29
  %31 = call zeroext i1 @errstart_cold(i32 noundef 21, ptr noundef null) #8
  br i1 %31, label %34, label %36

32:                                               ; preds = %29
  %33 = call zeroext i1 @errstart(i32 noundef 21, ptr noundef null)
  br i1 %33, label %34, label %36

34:                                               ; preds = %32, %30
  %35 = call i32 (ptr, ...) @errmsg_internal(ptr noundef @.str.12)
  call void @errfinish(ptr noundef @.str.1, i32 noundef 938, ptr noundef @__func__.array_agg_array_transfn)
  br label %36

36:                                               ; preds = %34, %32, %30
  unreachable

37:                                               ; No predecessors!
  br label %38

38:                                               ; preds = %37
  br label %39

39:                                               ; preds = %38, %24
  %40 = load ptr, ptr %2, align 8
  %41 = getelementptr inbounds nuw %struct.FunctionCallInfoBaseData, ptr %40, i32 0, i32 6
  %42 = getelementptr inbounds [0 x %struct.NullableDatum], ptr %41, i64 0, i64 0
  %43 = getelementptr inbounds nuw %struct.NullableDatum, ptr %42, i32 0, i32 1
  %44 = load i8, ptr %43, align 8, !range !4, !noundef !5
  %45 = trunc i8 %44 to i1
  br i1 %45, label %46, label %50

46:                                               ; preds = %39
  %47 = load i32, ptr %3, align 4
  %48 = load ptr, ptr %4, align 8
  %49 = call ptr @initArrayResultArr(i32 noundef %47, i32 noundef 0, ptr noundef %48, i1 noundef zeroext false)
  store ptr %49, ptr %5, align 8
  br label %57

50:                                               ; preds = %39
  %51 = load ptr, ptr %2, align 8
  %52 = getelementptr inbounds nuw %struct.FunctionCallInfoBaseData, ptr %51, i32 0, i32 6
  %53 = getelementptr inbounds [0 x %struct.NullableDatum], ptr %52, i64 0, i64 0
  %54 = getelementptr inbounds nuw %struct.NullableDatum, ptr %53, i32 0, i32 0
  %55 = load i64, ptr %54, align 8
  %56 = call ptr @DatumGetPointer(i64 noundef %55)
  store ptr %56, ptr %5, align 8
  br label %57

57:                                               ; preds = %50, %46
  %58 = load ptr, ptr %5, align 8
  %59 = load ptr, ptr %2, align 8
  %60 = getelementptr inbounds nuw %struct.FunctionCallInfoBaseData, ptr %59, i32 0, i32 6
  %61 = getelementptr inbounds [0 x %struct.NullableDatum], ptr %60, i64 0, i64 1
  %62 = getelementptr inbounds nuw %struct.NullableDatum, ptr %61, i32 0, i32 0
  %63 = load i64, ptr %62, align 8
  %64 = load ptr, ptr %2, align 8
  %65 = getelementptr inbounds nuw %struct.FunctionCallInfoBaseData, ptr %64, i32 0, i32 6
  %66 = getelementptr inbounds [0 x %struct.NullableDatum], ptr %65, i64 0, i64 1
  %67 = getelementptr inbounds nuw %struct.NullableDatum, ptr %66, i32 0, i32 1
  %68 = load i8, ptr %67, align 8, !range !4, !noundef !5
  %69 = trunc i8 %68 to i1
  %70 = load i32, ptr %3, align 4
  %71 = load ptr, ptr %4, align 8
  %72 = call ptr @accumArrayResultArr(ptr noundef %58, i64 noundef %63, i1 noundef zeroext %69, i32 noundef %70, ptr noundef %71)
  store ptr %72, ptr %5, align 8
  %73 = load ptr, ptr %5, align 8
  %74 = call i64 @PointerGetDatum(ptr noundef %73)
  call void @llvm.lifetime.end.p0(i64 8, ptr %5) #7
  call void @llvm.lifetime.end.p0(i64 8, ptr %4) #7
  call void @llvm.lifetime.end.p0(i64 4, ptr %3) #7
  ret i64 %74
}