; Function Attrs: nounwind uwtable
define dso_local i64 @array_agg_array_transfn(ptr noundef %0) local_unnamed_addr #0 {
  %2 = alloca ptr, align 8
  %3 = load ptr, ptr %0, align 8
  %4 = tail call i32 @get_fn_expr_argtype(ptr noundef %3, i32 noundef 1) #10
  call void @llvm.lifetime.start.p0(i64 8, ptr nonnull %2) #10
  %5 = icmp eq i32 %4, 0
  br i1 %5, label %6, label %10

6:                                                ; preds = %1
  %7 = tail call zeroext i1 @errstart_cold(i32 noundef 21, ptr noundef null) #11
  tail call void @llvm.assume(i1 %7)
  %8 = tail call i32 @errcode(i32 noundef 50856066) #10
  %9 = tail call i32 (ptr, ...) @errmsg(ptr noundef nonnull @.str.8) #10
  tail call void @errfinish(ptr noundef nonnull @.str.1, i32 noundef 927, ptr noundef nonnull @__func__.array_agg_array_transfn) #10
  unreachable

10:                                               ; preds = %1
  %11 = call i32 @AggCheckCallContext(ptr noundef nonnull %0, ptr noundef nonnull %2) #10
  %.not = icmp eq i32 %11, 0
  br i1 %.not, label %12, label %15

12:                                               ; preds = %10
  %13 = call zeroext i1 @errstart_cold(i32 noundef 21, ptr noundef null) #11
  call void @llvm.assume(i1 %13)
  %14 = call i32 (ptr, ...) @errmsg_internal(ptr noundef nonnull @.str.12) #10
  call void @errfinish(ptr noundef nonnull @.str.1, i32 noundef 938, ptr noundef nonnull @__func__.array_agg_array_transfn) #10
  unreachable

15:                                               ; preds = %10
  %16 = getelementptr inbounds nuw i8, ptr %0, i64 40
  %17 = load i8, ptr %16, align 8, !range !4, !noundef !5
  %18 = trunc nuw i8 %17 to i1
  br i1 %18, label %19, label %22

19:                                               ; preds = %15
  %20 = load ptr, ptr %2, align 8
  %21 = call ptr @initArrayResultArr(i32 noundef %4, i32 noundef 0, ptr noundef %20, i1 noundef zeroext false) #10
  br label %26

22:                                               ; preds = %15
  %23 = getelementptr inbounds nuw i8, ptr %0, i64 32
  %24 = load i64, ptr %23, align 8
  %25 = inttoptr i64 %24 to ptr
  br label %26

26:                                               ; preds = %22, %19
  %.0 = phi ptr [ %21, %19 ], [ %25, %22 ]
  %27 = getelementptr inbounds nuw i8, ptr %0, i64 48
  %28 = load i64, ptr %27, align 8
  %29 = getelementptr inbounds nuw i8, ptr %0, i64 56
  %30 = load i8, ptr %29, align 8, !range !4, !noundef !5
  %31 = trunc nuw i8 %30 to i1
  %32 = load ptr, ptr %2, align 8
  %33 = call ptr @accumArrayResultArr(ptr noundef %.0, i64 noundef %28, i1 noundef zeroext %31, i32 noundef %4, ptr noundef %32) #10
  %34 = ptrtoint ptr %33 to i64
  call void @llvm.lifetime.end.p0(i64 8, ptr nonnull %2) #10
  ret i64 %34
}